
bin/test.o:     file format elf32-i386

Disassembly of section .text:

00000000 <execute_bytecodes>:
   0:	55                   	push   %ebp
   1:	89 e5                	mov    %esp,%ebp
   3:	83 ec 28             	sub    $0x28,%esp
   6:	8b 45 08             	mov    0x8(%ebp),%eax
   9:	89 45 f8             	mov    %eax,0xfffffff8(%ebp)
   c:	8b 45 0c             	mov    0xc(%ebp),%eax
   f:	89 45 fc             	mov    %eax,0xfffffffc(%ebp)
  12:	a1 00 00 00 00       	mov    0x0,%eax
  17:	ff d0                	call   *%eax
  19:	8b 45 f8             	mov    0xfffffff8(%ebp),%eax
  1c:	8b 55 fc             	mov    0xfffffffc(%ebp),%edx
  1f:	89 04 24             	mov    %eax,(%esp)
  22:	89 54 24 04          	mov    %edx,0x4(%esp)
  26:	e8 fc ff ff ff       	call   27 <execute_bytecodes+0x27>
  2b:	c7 44 24 08 ef cd ab 	movl   $0x89abcdef,0x8(%esp)
  32:	89 
  33:	c7 44 24 0c 67 45 23 	movl   $0x1234567,0xc(%esp)
  3a:	01 
  3b:	8b 45 f8             	mov    0xfffffff8(%ebp),%eax
  3e:	8b 55 fc             	mov    0xfffffffc(%ebp),%edx
  41:	89 04 24             	mov    %eax,(%esp)
  44:	89 54 24 04          	mov    %edx,0x4(%esp)
  48:	e8 fc ff ff ff       	call   49 <execute_bytecodes+0x49>
  4d:	c7 44 24 10 cd ab 89 	movl   $0x6789abcd,0x10(%esp)
  54:	67 
  55:	c7 44 24 14 45 23 01 	movl   $0xef012345,0x14(%esp)
  5c:	ef 
  5d:	c7 44 24 08 de bc 9a 	movl   $0x789abcde,0x8(%esp)
  64:	78 
  65:	c7 44 24 0c 56 34 12 	movl   $0xf0123456,0xc(%esp)
  6c:	f0 
  6d:	8b 45 f8             	mov    0xfffffff8(%ebp),%eax
  70:	8b 55 fc             	mov    0xfffffffc(%ebp),%edx
  73:	89 04 24             	mov    %eax,(%esp)
  76:	89 54 24 04          	mov    %edx,0x4(%esp)
  7a:	e8 fc ff ff ff       	call   7b <execute_bytecodes+0x7b>
  7f:	c9                   	leave  
  80:	c3                   	ret    

00000081 <test_thread_func>:
  81:	55                   	push   %ebp
  82:	89 e5                	mov    %esp,%ebp
  84:	83 ec 08             	sub    $0x8,%esp
  87:	8b 45 08             	mov    0x8(%ebp),%eax
  8a:	89 45 f8             	mov    %eax,0xfffffff8(%ebp)
  8d:	8b 45 0c             	mov    0xc(%ebp),%eax
  90:	89 45 fc             	mov    %eax,0xfffffffc(%ebp)
  93:	8b 45 f8             	mov    0xfffffff8(%ebp),%eax
  96:	c9                   	leave  
  97:	c3                   	ret    

00000098 <return_if_not_eq>:
  98:	55                   	push   %ebp
  99:	89 e5                	mov    %esp,%ebp
  9b:	83 ec 10             	sub    $0x10,%esp
  9e:	8b 45 08             	mov    0x8(%ebp),%eax
  a1:	89 45 f8             	mov    %eax,0xfffffff8(%ebp)
  a4:	8b 45 0c             	mov    0xc(%ebp),%eax
  a7:	89 45 fc             	mov    %eax,0xfffffffc(%ebp)
  aa:	8b 45 f8             	mov    0xfffffff8(%ebp),%eax
  ad:	8b 55 fc             	mov    0xfffffffc(%ebp),%edx
  b0:	89 04 24             	mov    %eax,(%esp)
  b3:	89 54 24 04          	mov    %edx,0x4(%esp)
  b7:	e8 fc ff ff ff       	call   b8 <return_if_not_eq+0x20>
  bc:	85 c0                	test   %eax,%eax
  be:	74 0e                	je     ce <return_if_not_eq+0x36>
  c0:	c7 45 f8 02 00 00 00 	movl   $0x2,0xfffffff8(%ebp)
  c7:	c7 45 fc 00 00 00 00 	movl   $0x0,0xfffffffc(%ebp)
  ce:	c9                   	leave  
  cf:	c3                   	ret    

000000d0 <main>:
  d0:	8d 4c 24 04          	lea    0x4(%esp),%ecx
  d4:	83 e4 f0             	and    $0xfffffff0,%esp
  d7:	ff 71 fc             	pushl  0xfffffffc(%ecx)
  da:	55                   	push   %ebp
  db:	89 e5                	mov    %esp,%ebp
  dd:	51                   	push   %ecx
  de:	b8 00 00 00 00       	mov    $0x0,%eax
  e3:	59                   	pop    %ecx
  e4:	5d                   	pop    %ebp
  e5:	8d 61 fc             	lea    0xfffffffc(%ecx),%esp
  e8:	c3                   	ret    
